; Function Attrs: mustprogress uwtable
define hidden noundef zeroext i1 @_ZN4cvc58internal6theory20SubstitutionMinimize4findENS0_12NodeTemplateILb1EEES4_RKSt6vectorIS4_SaIS4_EES9_RS7_(ptr noundef nonnull align 8 dereferenceable(16) %0, ptr noundef readonly captures(none) %1, ptr noundef readonly captures(none) %2, ptr noundef nonnull readonly align 8 captures(none) dereferenceable(24) %3, ptr noundef nonnull readonly align 8 captures(none) dereferenceable(24) %4, ptr noundef nonnull align 8 dereferenceable(24) %5) local_unnamed_addr #3 align 2 personality ptr @__gxx_personality_v0 {
  %7 = alloca %"class.cvc5::internal::NodeTemplate", align 8
  %8 = alloca %"class.cvc5::internal::NodeTemplate", align 8
  %9 = load ptr, ptr %1, align 8, !tbaa !6
  store ptr %9, ptr %7, align 8, !tbaa !6
  %10 = load i64, ptr %9, align 8
  %11 = lshr i64 %10, 40
  %12 = trunc nuw nsw i64 %11 to i32
  %13 = and i32 %12, 1048575
  %14 = icmp samesign ult i32 %13, 1048574
  br i1 %14, label %15, label %20, !prof !11

15:                                               ; preds = %6
  %16 = add i64 %10, 1099511627776
  %17 = and i64 %16, 1152920405095219200
  %18 = and i64 %10, -1152920405095219201
  %19 = or disjoint i64 %17, %18
  store i64 %19, ptr %9, align 8
  br label %_ZN4cvc58internal12NodeTemplateILb1EEC2ERKS2_.exit

20:                                               ; preds = %6
  %21 = icmp eq i32 %13, 1048574
  br i1 %21, label %22, label %_ZN4cvc58internal12NodeTemplateILb1EEC2ERKS2_.exit, !prof !12

22:                                               ; preds = %20
  %23 = or i64 %10, 1152920405095219200
  store i64 %23, ptr %9, align 8
  tail call void @_ZN4cvc58internal4expr9NodeValue20markRefCountMaxedOutEv(ptr noundef nonnull align 8 dereferenceable(24) %9)
  br label %_ZN4cvc58internal12NodeTemplateILb1EEC2ERKS2_.exit

_ZN4cvc58internal12NodeTemplateILb1EEC2ERKS2_.exit: ; preds = %15, %20, %22
  %24 = load ptr, ptr %2, align 8, !tbaa !6
  store ptr %24, ptr %8, align 8, !tbaa !6
  %25 = load i64, ptr %24, align 8
  %26 = lshr i64 %25, 40
  %27 = trunc nuw nsw i64 %26 to i32
  %28 = and i32 %27, 1048575
  %29 = icmp samesign ult i32 %28, 1048574
  br i1 %29, label %30, label %35, !prof !11

30:                                               ; preds = %_ZN4cvc58internal12NodeTemplateILb1EEC2ERKS2_.exit
  %31 = add i64 %25, 1099511627776
  %32 = and i64 %31, 1152920405095219200
  %33 = and i64 %25, -1152920405095219201
  %34 = or disjoint i64 %32, %33
  store i64 %34, ptr %24, align 8
  br label %_ZN4cvc58internal12NodeTemplateILb1EEC2ERKS2_.exit7

35:                                               ; preds = %_ZN4cvc58internal12NodeTemplateILb1EEC2ERKS2_.exit
  %36 = icmp eq i32 %28, 1048574
  br i1 %36, label %37, label %_ZN4cvc58internal12NodeTemplateILb1EEC2ERKS2_.exit7, !prof !12

37:                                               ; preds = %35
  %38 = or i64 %25, 1152920405095219200
  store i64 %38, ptr %24, align 8
  invoke void @_ZN4cvc58internal4expr9NodeValue20markRefCountMaxedOutEv(ptr noundef nonnull align 8 dereferenceable(24) %24)
          to label %_ZN4cvc58internal12NodeTemplateILb1EEC2ERKS2_.exit7 unwind label %65

_ZN4cvc58internal12NodeTemplateILb1EEC2ERKS2_.exit7: ; preds = %35, %30, %37
  %39 = invoke noundef zeroext i1 @_ZN4cvc58internal6theory20SubstitutionMinimize12findInternalENS0_12NodeTemplateILb1EEES4_RKSt6vectorIS4_SaIS4_EES9_RS7_(ptr noundef nonnull align 8 dereferenceable(16) %0, ptr noundef nonnull %7, ptr noundef nonnull %8, ptr noundef nonnull align 8 dereferenceable(24) %3, ptr noundef nonnull align 8 dereferenceable(24) %4, ptr noundef nonnull align 8 dereferenceable(24) %5)
          to label %40 unwind label %67

40:                                               ; preds = %_ZN4cvc58internal12NodeTemplateILb1EEC2ERKS2_.exit7
  %41 = load i64, ptr %24, align 8
  %42 = and i64 %41, 1152920405095219200
  %.not.i.i = icmp eq i64 %42, 1152920405095219200
  br i1 %.not.i.i, label %_ZN4cvc58internal12NodeTemplateILb1EED2Ev.exit, label %43, !prof !12

43:                                               ; preds = %40
  %44 = add i64 %41, 1152920405095219200
  %45 = and i64 %44, 1152920405095219200
  %46 = and i64 %41, -1152920405095219201
  %47 = or disjoint i64 %45, %46
  store i64 %47, ptr %24, align 8
  %48 = icmp eq i64 %45, 0
  br i1 %48, label %49, label %_ZN4cvc58internal12NodeTemplateILb1EED2Ev.exit, !prof !12

49:                                               ; preds = %43
  invoke void @_ZN4cvc58internal4expr9NodeValue15markForDeletionEv(ptr noundef nonnull align 8 dereferenceable(24) %24)
          to label %_ZN4cvc58internal12NodeTemplateILb1EED2Ev.exit unwind label %50

50:                                               ; preds = %49
  %51 = landingpad { ptr, i32 }
          catch ptr null
  %52 = extractvalue { ptr, i32 } %51, 0
  tail call void @__clang_call_terminate(ptr %52) #20
  unreachable

_ZN4cvc58internal12NodeTemplateILb1EED2Ev.exit:   ; preds = %40, %43, %49
  %53 = load i64, ptr %9, align 8
  %54 = and i64 %53, 1152920405095219200
  %.not.i.i8 = icmp eq i64 %54, 1152920405095219200
  br i1 %.not.i.i8, label %_ZN4cvc58internal12NodeTemplateILb1EED2Ev.exit9, label %55, !prof !12

55:                                               ; preds = %_ZN4cvc58internal12NodeTemplateILb1EED2Ev.exit
  %56 = add i64 %53, 1152920405095219200
  %57 = and i64 %56, 1152920405095219200
  %58 = and i64 %53, -1152920405095219201
  %59 = or disjoint i64 %57, %58
  store i64 %59, ptr %9, align 8
  %60 = icmp eq i64 %57, 0
  br i1 %60, label %61, label %_ZN4cvc58internal12NodeTemplateILb1EED2Ev.exit9, !prof !12

61:                                               ; preds = %55
  invoke void @_ZN4cvc58internal4expr9NodeValue15markForDeletionEv(ptr noundef nonnull align 8 dereferenceable(24) %9)
          to label %_ZN4cvc58internal12NodeTemplateILb1EED2Ev.exit9 unwind label %62

62:                                               ; preds = %61
  %63 = landingpad { ptr, i32 }
          catch ptr null
  %64 = extractvalue { ptr, i32 } %63, 0
  tail call void @__clang_call_terminate(ptr %64) #20
  unreachable

_ZN4cvc58internal12NodeTemplateILb1EED2Ev.exit9:  ; preds = %_ZN4cvc58internal12NodeTemplateILb1EED2Ev.exit, %55, %61
  ret i1 %39

65:                                               ; preds = %37
  %66 = landingpad { ptr, i32 }
          cleanup
  br label %69

67:                                               ; preds = %_ZN4cvc58internal12NodeTemplateILb1EEC2ERKS2_.exit7
  %68 = landingpad { ptr, i32 }
          cleanup
  call void @_ZN4cvc58internal12NodeTemplateILb1EED2Ev(ptr noundef nonnull align 8 dereferenceable(8) %8) #21
  br label %69

69:                                               ; preds = %67, %65
  %.pn = phi { ptr, i32 } [ %68, %67 ], [ %66, %65 ]
  call void @_ZN4cvc58internal12NodeTemplateILb1EED2Ev(ptr noundef nonnull align 8 dereferenceable(8) %7) #21
  resume { ptr, i32 } %.pn
}